target datalayout = "e-m:e-p270:32:32-p271:32:32-p272:64:64-i64:64-i128:128-f80:128-n8:16:32:64-S128"
target triple = "x86_64-pc-linux-gnu"

%struct.text = type { ptr, ptr }

@.str.1 = private unnamed_addr constant [108 x i8] c"generated/home/dtcxzyw/WorkSpace/Projects/compilers/llvm-opt-benchmark/bench/clamav/clamav/libclamav/text.c\00", align 1
@.str.2 = private unnamed_addr constant [29 x i8] c"textMove fails sanity check\0A\00", align 1
@.str.3 = private unnamed_addr constant [46 x i8] c"textMove: Unable to allocate memory for head\0A\00", align 1
@.str.4 = private unnamed_addr constant [52 x i8] c"textMove: Unable to allocate memory for head->next\0A\00", align 1
@.str.5 = private unnamed_addr constant [15 x i8] c"t_head != NULL\00", align 1
@__PRETTY_FUNCTION__.textMove = private unnamed_addr constant [31 x i8] c"text *textMove(text *, text *)\00", align 1

; Function Attrs: nounwind uwtable
define ptr @textMove(ptr noundef %0, ptr noundef %1) #0 {
  %3 = alloca ptr, align 8
  %4 = alloca ptr, align 8
  %5 = alloca ptr, align 8
  %6 = alloca ptr, align 8
  %7 = alloca i32, align 4
  store ptr %0, ptr %4, align 8, !tbaa !3
  store ptr %1, ptr %5, align 8, !tbaa !3
  call void @llvm.lifetime.start.p0(i64 8, ptr %6) #7
  %8 = load ptr, ptr %4, align 8, !tbaa !3
  %9 = icmp eq ptr %8, null
  br i1 %9, label %10, label %35

10:                                               ; preds = %2
  %11 = load ptr, ptr %5, align 8, !tbaa !3
  %12 = icmp eq ptr %11, null
  br i1 %12, label %13, label %14

13:                                               ; preds = %10
  call void (ptr, ...) @cli_errmsg(ptr noundef @.str.2)
  store ptr null, ptr %3, align 8
  store i32 1, ptr %7, align 4
  br label %93

14:                                               ; preds = %10
  %15 = call noalias ptr @malloc(i64 noundef 16) #9
  store ptr %15, ptr %4, align 8, !tbaa !3
  %16 = load ptr, ptr %4, align 8, !tbaa !3
  %17 = icmp eq ptr %16, null
  br i1 %17, label %18, label %19

18:                                               ; preds = %14
  call void (ptr, ...) @cli_errmsg(ptr noundef @.str.3)
  store ptr null, ptr %3, align 8
  store i32 1, ptr %7, align 4
  br label %93

19:                                               ; preds = %14
  %20 = load ptr, ptr %5, align 8, !tbaa !3
  %21 = getelementptr inbounds nuw %struct.text, ptr %20, i32 0, i32 0
  %22 = load ptr, ptr %21, align 8, !tbaa !11
  %23 = load ptr, ptr %4, align 8, !tbaa !3
  %24 = getelementptr inbounds nuw %struct.text, ptr %23, i32 0, i32 0
  store ptr %22, ptr %24, align 8, !tbaa !11
  %25 = load ptr, ptr %5, align 8, !tbaa !3
  %26 = getelementptr inbounds nuw %struct.text, ptr %25, i32 0, i32 1
  %27 = load ptr, ptr %26, align 8, !tbaa !8
  %28 = load ptr, ptr %4, align 8, !tbaa !3
  %29 = getelementptr inbounds nuw %struct.text, ptr %28, i32 0, i32 1
  store ptr %27, ptr %29, align 8, !tbaa !8
  %30 = load ptr, ptr %5, align 8, !tbaa !3
  %31 = getelementptr inbounds nuw %struct.text, ptr %30, i32 0, i32 0
  store ptr null, ptr %31, align 8, !tbaa !11
  %32 = load ptr, ptr %5, align 8, !tbaa !3
  %33 = getelementptr inbounds nuw %struct.text, ptr %32, i32 0, i32 1
  store ptr null, ptr %33, align 8, !tbaa !8
  %34 = load ptr, ptr %4, align 8, !tbaa !3
  store ptr %34, ptr %3, align 8
  store i32 1, ptr %7, align 4
  br label %93

35:                                               ; preds = %2
  %36 = load ptr, ptr %5, align 8, !tbaa !3
  %37 = icmp eq ptr %36, null
  br i1 %37, label %38, label %40

38:                                               ; preds = %35
  %39 = load ptr, ptr %4, align 8, !tbaa !3
  store ptr %39, ptr %3, align 8
  store i32 1, ptr %7, align 4
  br label %93

40:                                               ; preds = %35
  %41 = load ptr, ptr %4, align 8, !tbaa !3
  store ptr %41, ptr %6, align 8, !tbaa !3
  br label %42

42:                                               ; preds = %47, %40
  %43 = load ptr, ptr %4, align 8, !tbaa !3
  %44 = getelementptr inbounds nuw %struct.text, ptr %43, i32 0, i32 1
  %45 = load ptr, ptr %44, align 8, !tbaa !8
  %46 = icmp ne ptr %45, null
  br i1 %46, label %47, label %51

47:                                               ; preds = %42
  %48 = load ptr, ptr %4, align 8, !tbaa !3
  %49 = getelementptr inbounds nuw %struct.text, ptr %48, i32 0, i32 1
  %50 = load ptr, ptr %49, align 8, !tbaa !8
  store ptr %50, ptr %4, align 8, !tbaa !3
  br label %42

51:                                               ; preds = %42
  %52 = call noalias ptr @malloc(i64 noundef 16) #9
  %53 = load ptr, ptr %4, align 8, !tbaa !3
  %54 = getelementptr inbounds nuw %struct.text, ptr %53, i32 0, i32 1
  store ptr %52, ptr %54, align 8, !tbaa !8
  %55 = load ptr, ptr %4, align 8, !tbaa !3
  %56 = getelementptr inbounds nuw %struct.text, ptr %55, i32 0, i32 1
  %57 = load ptr, ptr %56, align 8, !tbaa !8
  %58 = icmp eq ptr %57, null
  br i1 %58, label %59, label %60

59:                                               ; preds = %51
  call void (ptr, ...) @cli_errmsg(ptr noundef @.str.4)
  store ptr null, ptr %3, align 8
  store i32 1, ptr %7, align 4
  br label %93

60:                                               ; preds = %51
  %61 = load ptr, ptr %4, align 8, !tbaa !3
  %62 = getelementptr inbounds nuw %struct.text, ptr %61, i32 0, i32 1
  %63 = load ptr, ptr %62, align 8, !tbaa !8
  store ptr %63, ptr %4, align 8, !tbaa !3
  %64 = load ptr, ptr %4, align 8, !tbaa !3
  %65 = icmp ne ptr %64, null
  br i1 %65, label %66, label %67

66:                                               ; preds = %60
  br label %68

67:                                               ; preds = %60
  call void @__assert_fail(ptr noundef @.str.5, ptr noundef @.str.1, i32 noundef 287, ptr noundef @__PRETTY_FUNCTION__.textMove) #8
  unreachable

68:                                               ; preds = %66
  %69 = load ptr, ptr %5, align 8, !tbaa !3
  %70 = getelementptr inbounds nuw %struct.text, ptr %69, i32 0, i32 0
  %71 = load ptr, ptr %70, align 8, !tbaa !11
  %72 = icmp ne ptr %71, null
  br i1 %72, label %73, label %81

73:                                               ; preds = %68
  %74 = load ptr, ptr %5, align 8, !tbaa !3
  %75 = getelementptr inbounds nuw %struct.text, ptr %74, i32 0, i32 0
  %76 = load ptr, ptr %75, align 8, !tbaa !11
  %77 = load ptr, ptr %4, align 8, !tbaa !3
  %78 = getelementptr inbounds nuw %struct.text, ptr %77, i32 0, i32 0
  store ptr %76, ptr %78, align 8, !tbaa !11
  %79 = load ptr, ptr %5, align 8, !tbaa !3
  %80 = getelementptr inbounds nuw %struct.text, ptr %79, i32 0, i32 0
  store ptr null, ptr %80, align 8, !tbaa !11
  br label %84

81:                                               ; preds = %68
  %82 = load ptr, ptr %4, align 8, !tbaa !3
  %83 = getelementptr inbounds nuw %struct.text, ptr %82, i32 0, i32 0
  store ptr null, ptr %83, align 8, !tbaa !11
  br label %84

84:                                               ; preds = %81, %73
  %85 = load ptr, ptr %5, align 8, !tbaa !3
  %86 = getelementptr inbounds nuw %struct.text, ptr %85, i32 0, i32 1
  %87 = load ptr, ptr %86, align 8, !tbaa !8
  %88 = load ptr, ptr %4, align 8, !tbaa !3
  %89 = getelementptr inbounds nuw %struct.text, ptr %88, i32 0, i32 1
  store ptr %87, ptr %89, align 8, !tbaa !8
  %90 = load ptr, ptr %5, align 8, !tbaa !3
  %91 = getelementptr inbounds nuw %struct.text, ptr %90, i32 0, i32 1
  store ptr null, ptr %91, align 8, !tbaa !8
  %92 = load ptr, ptr %6, align 8, !tbaa !3
  store ptr %92, ptr %3, align 8
  store i32 1, ptr %7, align 4
  br label %93

93:                                               ; preds = %84, %59, %38, %19, %18, %13
  call void @llvm.lifetime.end.p0(i64 8, ptr %6) #7
  %94 = load ptr, ptr %3, align 8
  ret ptr %94
}