; Function Attrs: nounwind uwtable
define noundef ptr @textMove(ptr noundef %0, ptr noundef %1) local_unnamed_addr #0 {
  %3 = icmp eq ptr %0, null
  %4 = icmp eq ptr %1, null
  br i1 %3, label %5, label %16

5:                                                ; preds = %2
  br i1 %4, label %6, label %7

6:                                                ; preds = %5
  tail call void (ptr, ...) @cli_errmsg(ptr noundef nonnull @.str.2) #7
  br label %31

7:                                                ; preds = %5
  %8 = tail call noalias dereferenceable_or_null(16) ptr @malloc(i64 noundef 16) #9
  %9 = icmp eq ptr %8, null
  br i1 %9, label %10, label %11

10:                                               ; preds = %7
  tail call void (ptr, ...) @cli_errmsg(ptr noundef nonnull @.str.3) #7
  br label %31

11:                                               ; preds = %7
  %12 = load ptr, ptr %1, align 8, !tbaa !10
  store ptr %12, ptr %8, align 8, !tbaa !10
  %13 = getelementptr inbounds nuw i8, ptr %1, i64 8
  %14 = load ptr, ptr %13, align 8, !tbaa !3
  %15 = getelementptr inbounds nuw i8, ptr %8, i64 8
  store ptr %14, ptr %15, align 8, !tbaa !3
  tail call void @llvm.memset.p0.i64(ptr noundef nonnull align 8 dereferenceable(16) %1, i8 0, i64 16, i1 false)
  br label %31

16:                                               ; preds = %2
  br i1 %4, label %31, label %.preheader

.preheader:                                       ; preds = %16, %.preheader
  %.029 = phi ptr [ %18, %.preheader ], [ %0, %16 ]
  %17 = getelementptr inbounds nuw i8, ptr %.029, i64 8
  %18 = load ptr, ptr %17, align 8, !tbaa !3
  %.not = icmp eq ptr %18, null
  br i1 %.not, label %19, label %.preheader

19:                                               ; preds = %.preheader
  %20 = getelementptr inbounds nuw i8, ptr %.029, i64 8
  %21 = tail call noalias dereferenceable_or_null(16) ptr @malloc(i64 noundef 16) #9
  store ptr %21, ptr %20, align 8, !tbaa !3
  %22 = icmp eq ptr %21, null
  br i1 %22, label %23, label %24

23:                                               ; preds = %19
  tail call void (ptr, ...) @cli_errmsg(ptr noundef nonnull @.str.4) #7
  br label %31

24:                                               ; preds = %19
  %25 = load ptr, ptr %1, align 8, !tbaa !10
  %.not36 = icmp eq ptr %25, null
  br i1 %.not36, label %27, label %26

26:                                               ; preds = %24
  store ptr null, ptr %1, align 8, !tbaa !10
  br label %27

27:                                               ; preds = %24, %26
  store ptr %25, ptr %21, align 8, !tbaa !10
  %28 = getelementptr inbounds nuw i8, ptr %1, i64 8
  %29 = load ptr, ptr %28, align 8, !tbaa !3
  %30 = getelementptr inbounds nuw i8, ptr %21, i64 8
  store ptr %29, ptr %30, align 8, !tbaa !3
  store ptr null, ptr %28, align 8, !tbaa !3
  br label %31

31:                                               ; preds = %16, %27, %23, %11, %10, %6
  %.0 = phi ptr [ null, %6 ], [ null, %10 ], [ %8, %11 ], [ null, %23 ], [ %0, %27 ], [ %0, %16 ]
  ret ptr %.0
}